target datalayout = "e-m:e-p270:32:32-p271:32:32-p272:64:64-i64:64-i128:128-f80:128-n8:16:32:64-S128"
target triple = "x86_64-pc-linux-gnu"

; Function Attrs: mustprogress nounwind uwtable
define dso_local noundef i32 @_ZN4Luau7Compile12getTripCountEddd(double noundef %0, double noundef %1, double noundef %2) #4 {
  %4 = alloca i32, align 4
  %5 = alloca double, align 8
  %6 = alloca double, align 8
  %7 = alloca double, align 8
  %8 = alloca i32, align 4
  %9 = alloca i32, align 4
  %10 = alloca i32, align 4
  %11 = alloca i32, align 4
  store double %0, ptr %5, align 8, !tbaa !44
  store double %1, ptr %6, align 8, !tbaa !44
  store double %2, ptr %7, align 8, !tbaa !44
  call void @llvm.lifetime.start.p0(i64 4, ptr %8) #10
  %12 = load double, ptr %5, align 8, !tbaa !44
  %13 = fcmp oge double %12, -3.276700e+04
  br i1 %13, label %14, label %26

14:                                               ; preds = %3
  %15 = load double, ptr %5, align 8, !tbaa !44
  %16 = fcmp ole double %15, 3.276700e+04
  br i1 %16, label %17, label %26

17:                                               ; preds = %14
  %18 = load double, ptr %5, align 8, !tbaa !44
  %19 = fptosi double %18 to i32
  %20 = sitofp i32 %19 to double
  %21 = load double, ptr %5, align 8, !tbaa !44
  %22 = fcmp oeq double %20, %21
  br i1 %22, label %23, label %26

23:                                               ; preds = %17
  %24 = load double, ptr %5, align 8, !tbaa !44
  %25 = fptosi double %24 to i32
  br label %27

26:                                               ; preds = %17, %14, %3
  br label %27

27:                                               ; preds = %26, %23
  %28 = phi i32 [ %25, %23 ], [ -2147483648, %26 ]
  store i32 %28, ptr %8, align 4, !tbaa !4
  call void @llvm.lifetime.start.p0(i64 4, ptr %9) #10
  %29 = load double, ptr %6, align 8, !tbaa !44
  %30 = fcmp oge double %29, -3.276700e+04
  br i1 %30, label %31, label %43

31:                                               ; preds = %27
  %32 = load double, ptr %6, align 8, !tbaa !44
  %33 = fcmp ole double %32, 3.276700e+04
  br i1 %33, label %34, label %43

34:                                               ; preds = %31
  %35 = load double, ptr %6, align 8, !tbaa !44
  %36 = fptosi double %35 to i32
  %37 = sitofp i32 %36 to double
  %38 = load double, ptr %6, align 8, !tbaa !44
  %39 = fcmp oeq double %37, %38
  br i1 %39, label %40, label %43

40:                                               ; preds = %34
  %41 = load double, ptr %6, align 8, !tbaa !44
  %42 = fptosi double %41 to i32
  br label %44

43:                                               ; preds = %34, %31, %27
  br label %44

44:                                               ; preds = %43, %40
  %45 = phi i32 [ %42, %40 ], [ -2147483648, %43 ]
  store i32 %45, ptr %9, align 4, !tbaa !4
  call void @llvm.lifetime.start.p0(i64 4, ptr %10) #10
  %46 = load double, ptr %7, align 8, !tbaa !44
  %47 = fcmp oge double %46, -3.276700e+04
  br i1 %47, label %48, label %60

48:                                               ; preds = %44
  %49 = load double, ptr %7, align 8, !tbaa !44
  %50 = fcmp ole double %49, 3.276700e+04
  br i1 %50, label %51, label %60

51:                                               ; preds = %48
  %52 = load double, ptr %7, align 8, !tbaa !44
  %53 = fptosi double %52 to i32
  %54 = sitofp i32 %53 to double
  %55 = load double, ptr %7, align 8, !tbaa !44
  %56 = fcmp oeq double %54, %55
  br i1 %56, label %57, label %60

57:                                               ; preds = %51
  %58 = load double, ptr %7, align 8, !tbaa !44
  %59 = fptosi double %58 to i32
  br label %61

60:                                               ; preds = %51, %48, %44
  br label %61

61:                                               ; preds = %60, %57
  %62 = phi i32 [ %59, %57 ], [ -2147483648, %60 ]
  store i32 %62, ptr %10, align 4, !tbaa !4
  %63 = load i32, ptr %8, align 4, !tbaa !4
  %64 = icmp eq i32 %63, -2147483648
  br i1 %64, label %74, label %65

65:                                               ; preds = %61
  %66 = load i32, ptr %9, align 4, !tbaa !4
  %67 = icmp eq i32 %66, -2147483648
  br i1 %67, label %74, label %68

68:                                               ; preds = %65
  %69 = load i32, ptr %10, align 4, !tbaa !4
  %70 = icmp eq i32 %69, -2147483648
  br i1 %70, label %74, label %71

71:                                               ; preds = %68
  %72 = load i32, ptr %10, align 4, !tbaa !4
  %73 = icmp eq i32 %72, 0
  br i1 %73, label %74, label %75

74:                                               ; preds = %71, %68, %65, %61
  store i32 -1, ptr %4, align 4
  store i32 1, ptr %11, align 4
  br label %97

75:                                               ; preds = %71
  %76 = load i32, ptr %10, align 4, !tbaa !4
  %77 = icmp slt i32 %76, 0
  br i1 %77, label %78, label %82

78:                                               ; preds = %75
  %79 = load i32, ptr %9, align 4, !tbaa !4
  %80 = load i32, ptr %8, align 4, !tbaa !4
  %81 = icmp sgt i32 %79, %80
  br i1 %81, label %89, label %82

82:                                               ; preds = %78, %75
  %83 = load i32, ptr %10, align 4, !tbaa !4
  %84 = icmp sgt i32 %83, 0
  br i1 %84, label %85, label %90

85:                                               ; preds = %82
  %86 = load i32, ptr %9, align 4, !tbaa !4
  %87 = load i32, ptr %8, align 4, !tbaa !4
  %88 = icmp slt i32 %86, %87
  br i1 %88, label %89, label %90

89:                                               ; preds = %85, %78
  store i32 0, ptr %4, align 4
  store i32 1, ptr %11, align 4
  br label %97

90:                                               ; preds = %85, %82
  %91 = load i32, ptr %9, align 4, !tbaa !4
  %92 = load i32, ptr %8, align 4, !tbaa !4
  %93 = sub nsw i32 %91, %92
  %94 = load i32, ptr %10, align 4, !tbaa !4
  %95 = sdiv i32 %93, %94
  %96 = add nsw i32 %95, 1
  store i32 %96, ptr %4, align 4
  store i32 1, ptr %11, align 4
  br label %97

97:                                               ; preds = %90, %89, %74
  call void @llvm.lifetime.end.p0(i64 4, ptr %10) #10
  call void @llvm.lifetime.end.p0(i64 4, ptr %9) #10
  call void @llvm.lifetime.end.p0(i64 4, ptr %8) #10
  %98 = load i32, ptr %4, align 4
  ret i32 %98
}