; Function Attrs: mustprogress nofree norecurse nosync nounwind willreturn memory(none) uwtable
define dso_local noundef range(i32 -2147483647, -2147483648) i32 @_ZN4Luau7Compile12getTripCountEddd(double noundef %0, double noundef %1, double noundef %2) local_unnamed_addr #5 {
  %4 = tail call double @llvm.fabs.f64(double %0)
  %or.cond = fcmp ugt double %4, 3.276700e+04
  br i1 %or.cond, label %10, label %5

5:                                                ; preds = %3
  %6 = fptosi double %0 to i32
  %7 = sitofp i32 %6 to double
  %8 = fcmp oeq double %0, %7
  br i1 %8, label %9, label %10

9:                                                ; preds = %5
  br label %10

10:                                               ; preds = %3, %5, %9
  %11 = phi i32 [ %6, %9 ], [ -2147483648, %5 ], [ -2147483648, %3 ]
  %12 = tail call double @llvm.fabs.f64(double %1)
  %or.cond3 = fcmp ugt double %12, 3.276700e+04
  br i1 %or.cond3, label %18, label %13

13:                                               ; preds = %10
  %14 = fptosi double %1 to i32
  %15 = sitofp i32 %14 to double
  %16 = fcmp oeq double %1, %15
  br i1 %16, label %17, label %18

17:                                               ; preds = %13
  br label %18

18:                                               ; preds = %10, %13, %17
  %19 = phi i32 [ %14, %17 ], [ -2147483648, %13 ], [ -2147483648, %10 ]
  %20 = tail call double @llvm.fabs.f64(double %2)
  %or.cond5 = fcmp ugt double %20, 3.276700e+04
  br i1 %or.cond5, label %.thread, label %21

21:                                               ; preds = %18
  %22 = fptosi double %2 to i32
  %23 = sitofp i32 %22 to double
  %24 = fcmp oeq double %2, %23
  br i1 %24, label %25, label %.thread

25:                                               ; preds = %21
  %26 = icmp eq i32 %11, -2147483648
  %27 = icmp eq i32 %19, -2147483648
  %or.cond7 = or i1 %26, %27
  %28 = and i32 %22, 2147483647
  %29 = icmp eq i32 %28, 0
  %or.cond11 = or i1 %29, %or.cond7
  br i1 %or.cond11, label %.thread, label %30

30:                                               ; preds = %25
  %31 = icmp slt i32 %22, 0
  %32 = icmp sgt i32 %19, %11
  %or.cond45 = and i1 %31, %32
  br i1 %or.cond45, label %.thread, label %33

33:                                               ; preds = %30
  %34 = icmp sgt i32 %22, 0
  %35 = icmp slt i32 %19, %11
  %or.cond46 = and i1 %34, %35
  br i1 %or.cond46, label %.thread, label %36

36:                                               ; preds = %33
  %37 = sub nsw i32 %19, %11
  %38 = sdiv i32 %37, %22
  %39 = add nsw i32 %38, 1
  br label %.thread

.thread:                                          ; preds = %18, %21, %30, %33, %25, %36
  %.0 = phi i32 [ %39, %36 ], [ -1, %25 ], [ 0, %33 ], [ 0, %30 ], [ -1, %21 ], [ -1, %18 ]
  ret i32 %.0
}